Certificate:
    Data:
        Version: 3 (0x2)
        Serial Number: 5501 (0x157d)
    Signature Algorithm: sha256WithRSAEncryption
        Issuer: C=FR, ST=LR, L=Montpellier, O=PSSC-ClientCenter, OU=PSSC, CN=PSSC-ClientCenter CA/name=EasyRSA/emailAddress=reseau@fr.ibm.com
        Validity
            Not Before: Mar 27 12:57:40 2019 GMT
            Not After : Mar 26 12:57:40 2020 GMT
        Subject: C=FR, ST=LR, L=Montpellier, O=PSSC-ClientCenter, OU=PSSC, CN=hackathon_31032019_04/name=EasyRSA/emailAddress=reseau@fr.ibm.com
        Subject Public Key Info:
            Public Key Algorithm: rsaEncryption
                Public-Key: (2048 bit)
                Modulus:
                    00:eb:d9:cd:ab:8e:5b:36:d8:0b:d6:62:8b:b9:35:
                    9a:43:e7:02:be:1e:42:b8:f8:5b:f6:c4:54:92:c0:
                    39:3b:c8:63:ae:26:a7:4d:cf:03:62:b1:24:36:fe:
                    49:6e:20:e6:40:3e:fa:55:11:1d:0d:11:99:44:7a:
                    16:d8:31:86:fa:8d:66:c7:5b:47:0c:50:4e:28:1c:
                    a9:f1:2a:cc:4e:08:40:ef:3a:25:a2:3a:db:c0:4f:
                    b1:fe:cd:a7:48:5f:fe:70:e7:4a:95:aa:87:f9:6c:
                    3b:e5:8b:fe:01:84:dc:ff:c4:cd:2a:a3:fb:89:ef:
                    e7:2a:75:f0:28:45:29:73:5f:42:fb:ac:79:51:03:
                    25:39:37:2e:85:be:6d:fd:60:4d:a3:2e:9d:ee:f5:
                    38:9a:1d:4e:ee:59:cc:6f:e4:86:a2:0a:75:82:6d:
                    f7:8f:92:b4:3c:5f:9b:b0:8d:29:db:34:81:fd:c4:
                    f4:8a:52:1d:19:08:2d:d5:b3:42:81:c9:e0:29:cf:
                    e2:9d:5f:07:4a:55:51:9a:b1:06:64:b5:ce:e9:59:
                    87:f1:f8:45:6f:33:36:1b:18:94:f6:9e:07:a9:7d:
                    f7:eb:f8:16:9d:99:16:ea:46:2d:7c:2a:20:da:d8:
                    19:c3:48:d5:4f:e4:18:6c:d3:a4:f9:9f:2e:61:8b:
                    e2:1f
                Exponent: 65537 (0x10001)
        X509v3 extensions:
            X509v3 Basic Constraints: 
                CA:FALSE
            Netscape Comment: 
                Easy-RSA Generated Certificate
            X509v3 Subject Key Identifier: 
                79:5F:75:FB:27:E4:0C:B6:95:65:5F:91:84:D0:0D:1C:EF:B6:97:56
            X509v3 Authority Key Identifier: 
                keyid:24:6F:FD:B1:FA:B8:0F:FC:2B:02:9B:F2:D6:CC:01:2D:E4:A2:DD:A3
                DirName:/C=FR/ST=LR/L=Montpellier/O=PSSC-ClientCenter/OU=PSSC/CN=PSSC-ClientCenter CA/name=EasyRSA/emailAddress=reseau@fr.ibm.com
                serial:C5:28:2A:F1:64:FD:35:B2

            X509v3 Extended Key Usage: 
                TLS Web Client Authentication
            X509v3 Key Usage: 
                Digital Signature
    Signature Algorithm: sha256WithRSAEncryption
         3d:9d:ef:a2:39:5c:8c:bf:62:e3:f1:88:48:35:98:48:b2:be:
         40:e3:59:fd:77:c8:b5:7e:dc:8e:f1:6a:d8:d0:48:94:4d:14:
         fe:ac:98:75:ac:00:54:ed:84:4c:c5:4d:71:2b:b2:f2:63:9d:
         ef:6d:50:cb:0e:b8:3f:15:66:38:89:92:d6:16:1b:05:f9:9a:
         18:53:62:88:da:2a:1b:9d:49:ab:89:5c:d6:76:12:10:3f:a0:
         60:db:88:4c:32:82:d7:18:fd:c7:10:f0:f4:6f:9d:2e:a7:a6:
         ab:6c:fd:a9:c6:c1:b9:09:4f:82:77:53:ab:59:7d:a2:11:31:
         6f:b2:79:d8:a8:e6:86:e3:d7:bd:7c:22:a3:13:fc:d7:ff:78:
         b9:18:fd:0e:80:41:aa:c8:23:2e:87:ed:51:14:9b:63:8e:b9:
         06:c2:bc:a0:68:7b:bf:3a:d3:fd:7a:32:a2:3f:c1:aa:bd:7c:
         2b:0e:65:eb:54:5b:a7:33:50:44:51:77:b6:18:3d:32:32:5d:
         01:7a:78:02:e2:e9:a0:ec:0c:47:81:e3:80:33:d0:46:f0:63:
         d8:19:56:b7:0f:f0:d8:d3:fb:86:e7:b4:2d:be:97:3f:8f:64:
         b5:df:bc:b2:5e:36:78:f0:ba:40:72:16:26:4e:1d:17:47:9b:
         b3:05:74:81
-----BEGIN CERTIFICATE-----
MIIFQjCCBCqgAwIBAgICFX0wDQYJKoZIhvcNAQELBQAwga4xCzAJBgNVBAYTAkZS
MQswCQYDVQQIEwJMUjEUMBIGA1UEBxMLTW9udHBlbGxpZXIxGjAYBgNVBAoTEVBT
U0MtQ2xpZW50Q2VudGVyMQ0wCwYDVQQLEwRQU1NDMR0wGwYDVQQDExRQU1NDLUNs
aWVudENlbnRlciBDQTEQMA4GA1UEKRMHRWFzeVJTQTEgMB4GCSqGSIb3DQEJARYR
cmVzZWF1QGZyLmlibS5jb20wHhcNMTkwMzI3MTI1NzQwWhcNMjAwMzI2MTI1NzQw
WjCBrzELMAkGA1UEBhMCRlIxCzAJBgNVBAgTAkxSMRQwEgYDVQQHEwtNb250cGVs
bGllcjEaMBgGA1UEChMRUFNTQy1DbGllbnRDZW50ZXIxDTALBgNVBAsTBFBTU0Mx
HjAcBgNVBAMUFWhhY2thdGhvbl8zMTAzMjAxOV8wNDEQMA4GA1UEKRMHRWFzeVJT
QTEgMB4GCSqGSIb3DQEJARYRcmVzZWF1QGZyLmlibS5jb20wggEiMA0GCSqGSIb3
DQEBAQUAA4IBDwAwggEKAoIBAQDr2c2rjls22AvWYou5NZpD5wK+HkK4+Fv2xFSS
wDk7yGOuJqdNzwNisSQ2/kluIOZAPvpVER0NEZlEehbYMYb6jWbHW0cMUE4oHKnx
KsxOCEDvOiWiOtvAT7H+zadIX/5w50qVqof5bDvli/4BhNz/xM0qo/uJ7+cqdfAo
RSlzX0L7rHlRAyU5Ny6Fvm39YE2jLp3u9TiaHU7uWcxv5IaiCnWCbfePkrQ8X5uw
jSnbNIH9xPSKUh0ZCC3Vs0KByeApz+KdXwdKVVGasQZktc7pWYfx+EVvMzYbGJT2
ngepfffr+BadmRbqRi18KiDa2BnDSNVP5Bhs06T5ny5hi+IfAgMBAAGjggFlMIIB
YTAJBgNVHRMEAjAAMC0GCWCGSAGG+EIBDQQgFh5FYXN5LVJTQSBHZW5lcmF0ZWQg
Q2VydGlmaWNhdGUwHQYDVR0OBBYEFHlfdfsn5Ay2lWVfkYTQDRzvtpdWMIHjBgNV
HSMEgdswgdiAFCRv/bH6uA/8KwKb8tbMAS3kot2joYG0pIGxMIGuMQswCQYDVQQG
EwJGUjELMAkGA1UECBMCTFIxFDASBgNVBAcTC01vbnRwZWxsaWVyMRowGAYDVQQK
ExFQU1NDLUNsaWVudENlbnRlcjENMAsGA1UECxMEUFNTQzEdMBsGA1UEAxMUUFNT
Qy1DbGllbnRDZW50ZXIgQ0ExEDAOBgNVBCkTB0Vhc3lSU0ExIDAeBgkqhkiG9w0B
CQEWEXJlc2VhdUBmci5pYm0uY29tggkAxSgq8WT9NbIwEwYDVR0lBAwwCgYIKwYB
BQUHAwIwCwYDVR0PBAQDAgeAMA0GCSqGSIb3DQEBCwUAA4IBAQA9ne+iOVyMv2Lj
8YhINZhIsr5A41n9d8i1ftyO8WrY0EiUTRT+rJh1rABU7YRMxU1xK7LyY53vbVDL
Drg/FWY4iZLWFhsF+ZoYU2KI2iobnUmriVzWdhIQP6Bg24hMMoLXGP3HEPD0b50u
p6arbP2pxsG5CU+Cd1OrWX2iETFvsnnYqOaG49e9fCKjE/zX/3i5GP0OgEGqyCMu
h+1RFJtjjrkGwrygaHu/OtP9ejKiP8GqvXwrDmXrVFunM1BEUXe2GD0yMl0BengC
4umg7AxHgeOAM9BG8GPYGVa3D/DY0/uG57Qtvpc/j2S137yyXjZ48LpAchYmTh0X
R5uzBXSB
-----END CERTIFICATE-----
